; Function Attrs: mustprogress nofree norecurse nosync nounwind willreturn memory(argmem: readwrite) uwtable
define noundef i32 @PGTYPESinterval_copy(ptr noundef readonly captures(none) %0, ptr noundef writeonly captures(none) initializes((0, 16)) %1) local_unnamed_addr #7 {
  %3 = load i64, ptr %0, align 8
  store i64 %3, ptr %1, align 8
  %4 = getelementptr inbounds nuw i8, ptr %0, i64 8
  %5 = load i64, ptr %4, align 8
  %6 = getelementptr inbounds nuw i8, ptr %1, i64 8
  store i64 %5, ptr %6, align 8
  ret i32 0
}